target datalayout = "e-m:e-p270:32:32-p271:32:32-p272:64:64-i64:64-i128:128-f80:128-n8:16:32:64-S128"
target triple = "x86_64-pc-linux-gnu"

%struct.ARKodeMemRec = type { ptr, double, ptr, i32, i32, double, double, ptr, i32, double, ptr, i32, i32, ptr, ptr, i32, ptr, ptr, i32, ptr, ptr, ptr, ptr, ptr, ptr, ptr, ptr, ptr, ptr, ptr, ptr, ptr, ptr, ptr, i32, ptr, ptr, i32, ptr, i32, ptr, ptr, ptr, ptr, ptr, ptr, ptr, ptr, ptr, ptr, ptr, ptr, ptr, ptr, ptr, ptr, ptr, ptr, ptr, ptr, ptr, ptr, ptr, ptr, ptr, ptr, i32, ptr, ptr, ptr, ptr, ptr, ptr, ptr, i32, ptr, ptr, ptr, i32, ptr, ptr, ptr, ptr, ptr, ptr, ptr, i32, i32, i32, i32, double, double, double, double, double, double, double, double, double, double, i32, ptr, i64, i32, i32, i32, i32, i64, i64, i32, i64, i64, i64, i64, i64, i64, i64, double, double, double, double, double, i32, double, double, i32, i32, i32, i32, i32, i32, i32, i32, ptr, i32, ptr, ptr, ptr, ptr, i32, i32, i32 }
%struct.ARKodeERKStepMemRec = type { ptr, ptr, i32, i32, i32, ptr, i64, ptr, ptr, i32, double, double, ptr, i32, ptr, ptr }
%struct._generic_N_Vector = type { ptr, ptr, ptr }
%struct._generic_N_Vector_Ops = type { ptr, ptr, ptr, ptr, ptr, ptr, ptr, ptr, ptr, ptr, ptr, ptr, ptr, ptr, ptr, ptr, ptr, ptr, ptr, ptr, ptr, ptr, ptr, ptr, ptr, ptr, ptr, ptr, ptr, ptr, ptr, ptr, ptr, ptr, ptr, ptr, ptr, ptr, ptr, ptr, ptr, ptr, ptr, ptr, ptr, ptr, ptr, ptr, ptr, ptr, ptr, ptr, ptr, ptr, ptr, ptr }
%struct.ARKodeButcherTableMem = type { i32, i32, i32, ptr, ptr, ptr, ptr }

@.str = private unnamed_addr constant [123 x i8] c"generated/home/dtcxzyw/WorkSpace/Projects/compilers/llvm-opt-benchmark/bench/sundials/sundials/src/arkode/arkode_erkstep.c\00", align 1
@.str.21 = private unnamed_addr constant [33 x i8] c"Time step module memory is NULL.\00", align 1
@__func__.erkStep_RelaxDeltaE = private unnamed_addr constant [20 x i8] c"erkStep_RelaxDeltaE\00", align 1

; Function Attrs: nounwind uwtable
define i32 @erkStep_RelaxDeltaE(ptr noundef %0, ptr noundef %1, ptr noundef %2, ptr noundef %3) #0 {
  %5 = alloca i32, align 4
  %6 = alloca ptr, align 8
  %7 = alloca ptr, align 8
  %8 = alloca ptr, align 8
  %9 = alloca ptr, align 8
  %10 = alloca i32, align 4
  %11 = alloca i32, align 4
  %12 = alloca i32, align 4
  %13 = alloca i32, align 4
  %14 = alloca ptr, align 8
  %15 = alloca ptr, align 8
  %16 = alloca ptr, align 8
  %17 = alloca ptr, align 8
  %18 = alloca ptr, align 8
  %19 = alloca i32, align 4
  store ptr %0, ptr %6, align 8, !tbaa !15
  store ptr %1, ptr %7, align 8, !tbaa !3
  store ptr %2, ptr %8, align 8, !tbaa !125
  store ptr %3, ptr %9, align 8, !tbaa !89
  call void @llvm.lifetime.start.p0(i64 4, ptr %10) #8
  call void @llvm.lifetime.start.p0(i64 4, ptr %11) #8
  call void @llvm.lifetime.start.p0(i64 4, ptr %12) #8
  call void @llvm.lifetime.start.p0(i64 4, ptr %13) #8
  call void @llvm.lifetime.start.p0(i64 8, ptr %14) #8
  call void @llvm.lifetime.start.p0(i64 8, ptr %15) #8
  call void @llvm.lifetime.start.p0(i64 8, ptr %16) #8
  call void @llvm.lifetime.start.p0(i64 8, ptr %17) #8
  %20 = load ptr, ptr %6, align 8, !tbaa !15
  %21 = getelementptr inbounds nuw %struct.ARKodeMemRec, ptr %20, i32 0, i32 80
  %22 = load ptr, ptr %21, align 8, !tbaa !127
  store ptr %22, ptr %17, align 8, !tbaa !9
  call void @llvm.lifetime.start.p0(i64 8, ptr %18) #8
  %23 = load ptr, ptr %6, align 8, !tbaa !15
  %24 = getelementptr inbounds nuw %struct.ARKodeMemRec, ptr %23, i32 0, i32 81
  %25 = load ptr, ptr %24, align 8, !tbaa !128
  store ptr %25, ptr %18, align 8, !tbaa !9
  %26 = load ptr, ptr %6, align 8, !tbaa !15
  %27 = getelementptr inbounds nuw %struct.ARKodeMemRec, ptr %26, i32 0, i32 19
  %28 = load ptr, ptr %27, align 8, !tbaa !41
  %29 = icmp ne ptr %28, null
  br i1 %29, label %32, label %30

30:                                               ; preds = %4
  %31 = load ptr, ptr %6, align 8, !tbaa !15
  call void (ptr, i32, i32, ptr, ptr, ptr, ...) @arkProcessError(ptr noundef %31, i32 noundef -21, i32 noundef 1231, ptr noundef @__func__.erkStep_RelaxDeltaE, ptr noundef @.str, ptr noundef @.str.21)
  store i32 -21, ptr %5, align 4
  store i32 1, ptr %19, align 4
  br label %223

32:                                               ; preds = %4
  %33 = load ptr, ptr %6, align 8, !tbaa !15
  %34 = getelementptr inbounds nuw %struct.ARKodeMemRec, ptr %33, i32 0, i32 19
  %35 = load ptr, ptr %34, align 8, !tbaa !41
  store ptr %35, ptr %16, align 8, !tbaa !17
  %36 = load ptr, ptr %9, align 8, !tbaa !89
  store double 0.000000e+00, ptr %36, align 8, !tbaa !7
  %37 = load ptr, ptr %16, align 8, !tbaa !17
  %38 = getelementptr inbounds nuw %struct.ARKodeERKStepMemRec, ptr %37, i32 0, i32 7
  %39 = load ptr, ptr %38, align 8, !tbaa !50
  store ptr %39, ptr %14, align 8, !tbaa !89
  %40 = load ptr, ptr %16, align 8, !tbaa !17
  %41 = getelementptr inbounds nuw %struct.ARKodeERKStepMemRec, ptr %40, i32 0, i32 8
  %42 = load ptr, ptr %41, align 8, !tbaa !51
  store ptr %42, ptr %15, align 8, !tbaa !90
  store i32 0, ptr %10, align 4, !tbaa !13
  br label %43

43:                                               ; preds = %191, %32
  %44 = load i32, ptr %10, align 4, !tbaa !13
  %45 = load ptr, ptr %16, align 8, !tbaa !17
  %46 = getelementptr inbounds nuw %struct.ARKodeERKStepMemRec, ptr %45, i32 0, i32 4
  %47 = load i32, ptr %46, align 8, !tbaa !83
  %48 = icmp slt i32 %44, %47
  br i1 %48, label %49, label %194

49:                                               ; preds = %43
  store i32 0, ptr %12, align 4, !tbaa !13
  %50 = load ptr, ptr %14, align 8, !tbaa !89
  %51 = load i32, ptr %12, align 4, !tbaa !13
  %52 = sext i32 %51 to i64
  %53 = getelementptr inbounds double, ptr %50, i64 %52
  store double 1.000000e+00, ptr %53, align 8, !tbaa !7
  %54 = load ptr, ptr %6, align 8, !tbaa !15
  %55 = getelementptr inbounds nuw %struct.ARKodeMemRec, ptr %54, i32 0, i32 76
  %56 = load ptr, ptr %55, align 8, !tbaa !98
  %57 = load ptr, ptr %15, align 8, !tbaa !90
  %58 = load i32, ptr %12, align 4, !tbaa !13
  %59 = sext i32 %58 to i64
  %60 = getelementptr inbounds ptr, ptr %57, i64 %59
  store ptr %56, ptr %60, align 8, !tbaa !9
  %61 = load i32, ptr %12, align 4, !tbaa !13
  %62 = add nsw i32 %61, 1
  store i32 %62, ptr %12, align 4, !tbaa !13
  store i32 0, ptr %11, align 4, !tbaa !13
  br label %63

63:                                               ; preds = %102, %49
  %64 = load i32, ptr %11, align 4, !tbaa !13
  %65 = load i32, ptr %10, align 4, !tbaa !13
  %66 = icmp slt i32 %64, %65
  br i1 %66, label %67, label %105

67:                                               ; preds = %63
  %68 = load ptr, ptr %6, align 8, !tbaa !15
  %69 = getelementptr inbounds nuw %struct.ARKodeMemRec, ptr %68, i32 0, i32 92
  %70 = load double, ptr %69, align 8, !tbaa !101
  %71 = load ptr, ptr %16, align 8, !tbaa !17
  %72 = getelementptr inbounds nuw %struct.ARKodeERKStepMemRec, ptr %71, i32 0, i32 5
  %73 = load ptr, ptr %72, align 8, !tbaa !70
  %74 = getelementptr inbounds nuw %struct.ARKodeButcherTableMem, ptr %73, i32 0, i32 3
  %75 = load ptr, ptr %74, align 8, !tbaa !103
  %76 = load i32, ptr %10, align 4, !tbaa !13
  %77 = sext i32 %76 to i64
  %78 = getelementptr inbounds ptr, ptr %75, i64 %77
  %79 = load ptr, ptr %78, align 8, !tbaa !89
  %80 = load i32, ptr %11, align 4, !tbaa !13
  %81 = sext i32 %80 to i64
  %82 = getelementptr inbounds double, ptr %79, i64 %81
  %83 = load double, ptr %82, align 8, !tbaa !7
  %84 = fmul double %70, %83
  %85 = load ptr, ptr %14, align 8, !tbaa !89
  %86 = load i32, ptr %12, align 4, !tbaa !13
  %87 = sext i32 %86 to i64
  %88 = getelementptr inbounds double, ptr %85, i64 %87
  store double %84, ptr %88, align 8, !tbaa !7
  %89 = load ptr, ptr %16, align 8, !tbaa !17
  %90 = getelementptr inbounds nuw %struct.ARKodeERKStepMemRec, ptr %89, i32 0, i32 1
  %91 = load ptr, ptr %90, align 8, !tbaa !82
  %92 = load i32, ptr %11, align 4, !tbaa !13
  %93 = sext i32 %92 to i64
  %94 = getelementptr inbounds ptr, ptr %91, i64 %93
  %95 = load ptr, ptr %94, align 8, !tbaa !9
  %96 = load ptr, ptr %15, align 8, !tbaa !90
  %97 = load i32, ptr %12, align 4, !tbaa !13
  %98 = sext i32 %97 to i64
  %99 = getelementptr inbounds ptr, ptr %96, i64 %98
  store ptr %95, ptr %99, align 8, !tbaa !9
  %100 = load i32, ptr %12, align 4, !tbaa !13
  %101 = add nsw i32 %100, 1
  store i32 %101, ptr %12, align 4, !tbaa !13
  br label %102

102:                                              ; preds = %67
  %103 = load i32, ptr %11, align 4, !tbaa !13
  %104 = add nsw i32 %103, 1
  store i32 %104, ptr %11, align 4, !tbaa !13
  br label %63

105:                                              ; preds = %63
  %106 = load i32, ptr %12, align 4, !tbaa !13
  %107 = load ptr, ptr %14, align 8, !tbaa !89
  %108 = load ptr, ptr %15, align 8, !tbaa !90
  %109 = load ptr, ptr %17, align 8, !tbaa !9
  %110 = call i32 @N_VLinearCombination(i32 noundef %106, ptr noundef %107, ptr noundef %108, ptr noundef %109)
  store i32 %110, ptr %13, align 4, !tbaa !13
  %111 = load i32, ptr %13, align 4, !tbaa !13
  %112 = icmp ne i32 %111, 0
  br i1 %112, label %113, label %114

113:                                              ; preds = %105
  store i32 -28, ptr %5, align 4
  store i32 1, ptr %19, align 4
  br label %223

114:                                              ; preds = %105
  %115 = load ptr, ptr %7, align 8, !tbaa !3
  %116 = load ptr, ptr %17, align 8, !tbaa !9
  %117 = load ptr, ptr %18, align 8, !tbaa !9
  %118 = load ptr, ptr %6, align 8, !tbaa !15
  %119 = getelementptr inbounds nuw %struct.ARKodeMemRec, ptr %118, i32 0, i32 2
  %120 = load ptr, ptr %119, align 8, !tbaa !92
  %121 = call i32 %115(ptr noundef %116, ptr noundef %117, ptr noundef %120)
  store i32 %121, ptr %13, align 4, !tbaa !13
  %122 = load ptr, ptr %8, align 8, !tbaa !125
  %123 = load i64, ptr %122, align 8, !tbaa !106
  %124 = add nsw i64 %123, 1
  store i64 %124, ptr %122, align 8, !tbaa !106
  %125 = load i32, ptr %13, align 4, !tbaa !13
  %126 = icmp slt i32 %125, 0
  br i1 %126, label %127, label %128

127:                                              ; preds = %114
  store i32 -46, ptr %5, align 4
  store i32 1, ptr %19, align 4
  br label %223

128:                                              ; preds = %114
  %129 = load i32, ptr %13, align 4, !tbaa !13
  %130 = icmp sgt i32 %129, 0
  br i1 %130, label %131, label %132

131:                                              ; preds = %128
  store i32 2, ptr %5, align 4
  store i32 1, ptr %19, align 4
  br label %223

132:                                              ; preds = %128
  %133 = load ptr, ptr %18, align 8, !tbaa !9
  %134 = getelementptr inbounds nuw %struct._generic_N_Vector, ptr %133, i32 0, i32 1
  %135 = load ptr, ptr %134, align 8, !tbaa !55
  %136 = getelementptr inbounds nuw %struct._generic_N_Vector_Ops, ptr %135, i32 0, i32 40
  %137 = load ptr, ptr %136, align 8, !tbaa !129
  %138 = icmp ne ptr %137, null
  br i1 %138, label %139, label %168

139:                                              ; preds = %132
  %140 = load ptr, ptr %18, align 8, !tbaa !9
  %141 = getelementptr inbounds nuw %struct._generic_N_Vector, ptr %140, i32 0, i32 1
  %142 = load ptr, ptr %141, align 8, !tbaa !55
  %143 = getelementptr inbounds nuw %struct._generic_N_Vector_Ops, ptr %142, i32 0, i32 50
  %144 = load ptr, ptr %143, align 8, !tbaa !130
  %145 = icmp ne ptr %144, null
  br i1 %145, label %146, label %168

146:                                              ; preds = %139
  %147 = load ptr, ptr %16, align 8, !tbaa !17
  %148 = getelementptr inbounds nuw %struct.ARKodeERKStepMemRec, ptr %147, i32 0, i32 5
  %149 = load ptr, ptr %148, align 8, !tbaa !70
  %150 = getelementptr inbounds nuw %struct.ARKodeButcherTableMem, ptr %149, i32 0, i32 5
  %151 = load ptr, ptr %150, align 8, !tbaa !123
  %152 = load i32, ptr %10, align 4, !tbaa !13
  %153 = sext i32 %152 to i64
  %154 = getelementptr inbounds double, ptr %151, i64 %153
  %155 = load double, ptr %154, align 8, !tbaa !7
  %156 = load ptr, ptr %18, align 8, !tbaa !9
  %157 = load ptr, ptr %16, align 8, !tbaa !17
  %158 = getelementptr inbounds nuw %struct.ARKodeERKStepMemRec, ptr %157, i32 0, i32 1
  %159 = load ptr, ptr %158, align 8, !tbaa !82
  %160 = load i32, ptr %10, align 4, !tbaa !13
  %161 = sext i32 %160 to i64
  %162 = getelementptr inbounds ptr, ptr %159, i64 %161
  %163 = load ptr, ptr %162, align 8, !tbaa !9
  %164 = call double @N_VDotProdLocal(ptr noundef %156, ptr noundef %163)
  %165 = load ptr, ptr %9, align 8, !tbaa !89
  %166 = load double, ptr %165, align 8, !tbaa !7
  %167 = call double @llvm.fmuladd.f64(double %155, double %164, double %166)
  store double %167, ptr %165, align 8, !tbaa !7
  br label %190

168:                                              ; preds = %139, %132
  %169 = load ptr, ptr %16, align 8, !tbaa !17
  %170 = getelementptr inbounds nuw %struct.ARKodeERKStepMemRec, ptr %169, i32 0, i32 5
  %171 = load ptr, ptr %170, align 8, !tbaa !70
  %172 = getelementptr inbounds nuw %struct.ARKodeButcherTableMem, ptr %171, i32 0, i32 5
  %173 = load ptr, ptr %172, align 8, !tbaa !123
  %174 = load i32, ptr %10, align 4, !tbaa !13
  %175 = sext i32 %174 to i64
  %176 = getelementptr inbounds double, ptr %173, i64 %175
  %177 = load double, ptr %176, align 8, !tbaa !7
  %178 = load ptr, ptr %18, align 8, !tbaa !9
  %179 = load ptr, ptr %16, align 8, !tbaa !17
  %180 = getelementptr inbounds nuw %struct.ARKodeERKStepMemRec, ptr %179, i32 0, i32 1
  %181 = load ptr, ptr %180, align 8, !tbaa !82
  %182 = load i32, ptr %10, align 4, !tbaa !13
  %183 = sext i32 %182 to i64
  %184 = getelementptr inbounds ptr, ptr %181, i64 %183
  %185 = load ptr, ptr %184, align 8, !tbaa !9
  %186 = call double @N_VDotProd(ptr noundef %178, ptr noundef %185)
  %187 = load ptr, ptr %9, align 8, !tbaa !89
  %188 = load double, ptr %187, align 8, !tbaa !7
  %189 = call double @llvm.fmuladd.f64(double %177, double %186, double %188)
  store double %189, ptr %187, align 8, !tbaa !7
  br label %190

190:                                              ; preds = %168, %146
  br label %191

191:                                              ; preds = %190
  %192 = load i32, ptr %10, align 4, !tbaa !13
  %193 = add nsw i32 %192, 1
  store i32 %193, ptr %10, align 4, !tbaa !13
  br label %43

194:                                              ; preds = %43
  %195 = load ptr, ptr %18, align 8, !tbaa !9
  %196 = getelementptr inbounds nuw %struct._generic_N_Vector, ptr %195, i32 0, i32 1
  %197 = load ptr, ptr %196, align 8, !tbaa !55
  %198 = getelementptr inbounds nuw %struct._generic_N_Vector_Ops, ptr %197, i32 0, i32 40
  %199 = load ptr, ptr %198, align 8, !tbaa !129
  %200 = icmp ne ptr %199, null
  br i1 %200, label %201, label %216

201:                                              ; preds = %194
  %202 = load ptr, ptr %18, align 8, !tbaa !9
  %203 = getelementptr inbounds nuw %struct._generic_N_Vector, ptr %202, i32 0, i32 1
  %204 = load ptr, ptr %203, align 8, !tbaa !55
  %205 = getelementptr inbounds nuw %struct._generic_N_Vector_Ops, ptr %204, i32 0, i32 50
  %206 = load ptr, ptr %205, align 8, !tbaa !130
  %207 = icmp ne ptr %206, null
  br i1 %207, label %208, label %216

208:                                              ; preds = %201
  %209 = load ptr, ptr %18, align 8, !tbaa !9
  %210 = load ptr, ptr %9, align 8, !tbaa !89
  %211 = call i32 @N_VDotProdMultiAllReduce(i32 noundef 1, ptr noundef %209, ptr noundef %210)
  store i32 %211, ptr %13, align 4, !tbaa !13
  %212 = load i32, ptr %13, align 4, !tbaa !13
  %213 = icmp ne i32 %212, 0
  br i1 %213, label %214, label %215

214:                                              ; preds = %208
  store i32 -28, ptr %5, align 4
  store i32 1, ptr %19, align 4
  br label %223

215:                                              ; preds = %208
  br label %216

216:                                              ; preds = %215, %201, %194
  %217 = load ptr, ptr %6, align 8, !tbaa !15
  %218 = getelementptr inbounds nuw %struct.ARKodeMemRec, ptr %217, i32 0, i32 92
  %219 = load double, ptr %218, align 8, !tbaa !101
  %220 = load ptr, ptr %9, align 8, !tbaa !89
  %221 = load double, ptr %220, align 8, !tbaa !7
  %222 = fmul double %221, %219
  store double %222, ptr %220, align 8, !tbaa !7
  store i32 0, ptr %5, align 4
  store i32 1, ptr %19, align 4
  br label %223

223:                                              ; preds = %216, %214, %131, %127, %113, %30
  call void @llvm.lifetime.end.p0(i64 8, ptr %18) #8
  call void @llvm.lifetime.end.p0(i64 8, ptr %17) #8
  call void @llvm.lifetime.end.p0(i64 8, ptr %16) #8
  call void @llvm.lifetime.end.p0(i64 8, ptr %15) #8
  call void @llvm.lifetime.end.p0(i64 8, ptr %14) #8
  call void @llvm.lifetime.end.p0(i64 4, ptr %13) #8
  call void @llvm.lifetime.end.p0(i64 4, ptr %12) #8
  call void @llvm.lifetime.end.p0(i64 4, ptr %11) #8
  call void @llvm.lifetime.end.p0(i64 4, ptr %10) #8
  %224 = load i32, ptr %5, align 4
  ret i32 %224
}