; Function Attrs: nounwind uwtable
define range(i32 -46, 3) i32 @erkStep_RelaxDeltaE(ptr noundef %0, ptr noundef readonly captures(none) %1, ptr noundef captures(none) %2, ptr noundef %3) local_unnamed_addr #0 {
  %5 = getelementptr inbounds nuw i8, ptr %0, i64 624
  %6 = load ptr, ptr %5, align 8, !tbaa !112
  %7 = getelementptr inbounds nuw i8, ptr %0, i64 632
  %8 = load ptr, ptr %7, align 8, !tbaa !113
  %9 = getelementptr inbounds nuw i8, ptr %0, i64 136
  %10 = load ptr, ptr %9, align 8, !tbaa !44
  %.not = icmp eq ptr %10, null
  br i1 %.not, label %11, label %12

11:                                               ; preds = %4
  tail call void (ptr, i32, i32, ptr, ptr, ptr, ...) @arkProcessError(ptr noundef nonnull %0, i32 noundef -21, i32 noundef 1231, ptr noundef nonnull @__func__.erkStep_RelaxDeltaE, ptr noundef nonnull @.str, ptr noundef nonnull @.str.21) #12
  br label %.loopexit

12:                                               ; preds = %4
  store double 0.000000e+00, ptr %3, align 8, !tbaa !81
  %13 = getelementptr inbounds nuw i8, ptr %10, i64 48
  %14 = load ptr, ptr %13, align 8, !tbaa !75
  %15 = getelementptr inbounds nuw i8, ptr %10, i64 56
  %16 = load ptr, ptr %15, align 8, !tbaa !76
  %17 = getelementptr inbounds nuw i8, ptr %10, i64 24
  %18 = load i32, ptr %17, align 8, !tbaa !72
  %19 = icmp sgt i32 %18, 0
  br i1 %19, label %.lr.ph80, label %._crit_edge81

.lr.ph80:                                         ; preds = %12
  %20 = getelementptr inbounds nuw i8, ptr %0, i64 592
  %21 = getelementptr inbounds nuw i8, ptr %0, i64 704
  %22 = getelementptr inbounds nuw i8, ptr %10, i64 32
  %23 = getelementptr inbounds nuw i8, ptr %10, i64 8
  %24 = getelementptr inbounds nuw i8, ptr %0, i64 16
  %25 = getelementptr inbounds nuw i8, ptr %8, i64 8
  br label %26

26:                                               ; preds = %.lr.ph80, %83
  %indvars.iv88 = phi i64 [ 0, %.lr.ph80 ], [ %indvars.iv.next89, %83 ]
  store double 1.000000e+00, ptr %14, align 8, !tbaa !81
  %27 = load ptr, ptr %20, align 8, !tbaa !92
  store ptr %27, ptr %16, align 8, !tbaa !83
  %.not82 = icmp eq i64 %indvars.iv88, 0
  br i1 %.not82, label %._crit_edge, label %.lr.ph

.lr.ph:                                           ; preds = %26
  %28 = load ptr, ptr %22, align 8, !tbaa !59
  %29 = getelementptr inbounds nuw i8, ptr %28, i64 16
  %30 = load ptr, ptr %29, align 8, !tbaa !97
  %31 = getelementptr inbounds nuw ptr, ptr %30, i64 %indvars.iv88
  %32 = load ptr, ptr %31, align 8, !tbaa !98
  %33 = load ptr, ptr %23, align 8, !tbaa !71
  br label %34

34:                                               ; preds = %.lr.ph, %34
  %indvars.iv83 = phi i64 [ 1, %.lr.ph ], [ %indvars.iv.next84, %34 ]
  %indvars.iv = phi i64 [ 0, %.lr.ph ], [ %indvars.iv.next, %34 ]
  %35 = load double, ptr %21, align 8, !tbaa !95
  %36 = getelementptr inbounds nuw double, ptr %32, i64 %indvars.iv
  %37 = load double, ptr %36, align 8, !tbaa !81
  %38 = fmul double %35, %37
  %39 = getelementptr inbounds nuw double, ptr %14, i64 %indvars.iv83
  store double %38, ptr %39, align 8, !tbaa !81
  %40 = getelementptr inbounds nuw ptr, ptr %33, i64 %indvars.iv
  %41 = load ptr, ptr %40, align 8, !tbaa !83
  %42 = getelementptr inbounds nuw ptr, ptr %16, i64 %indvars.iv83
  store ptr %41, ptr %42, align 8, !tbaa !83
  %indvars.iv.next84 = add nuw nsw i64 %indvars.iv83, 1
  %indvars.iv.next = add nuw nsw i64 %indvars.iv, 1
  %exitcond.not = icmp eq i64 %indvars.iv.next, %indvars.iv88
  br i1 %exitcond.not, label %._crit_edge.loopexit, label %34

._crit_edge.loopexit:                             ; preds = %34
  %43 = trunc nuw nsw i64 %indvars.iv.next84 to i32
  br label %._crit_edge

._crit_edge:                                      ; preds = %._crit_edge.loopexit, %26
  %.066.lcssa = phi i32 [ 1, %26 ], [ %43, %._crit_edge.loopexit ]
  %44 = tail call i32 @N_VLinearCombination(i32 noundef %.066.lcssa, ptr noundef nonnull %14, ptr noundef nonnull %16, ptr noundef %6) #12
  %.not72 = icmp eq i32 %44, 0
  br i1 %.not72, label %45, label %.loopexit

45:                                               ; preds = %._crit_edge
  %46 = load ptr, ptr %24, align 8, !tbaa !84
  %47 = tail call i32 %1(ptr noundef %6, ptr noundef %8, ptr noundef %46) #12
  %48 = load i64, ptr %2, align 8, !tbaa !101
  %49 = add nsw i64 %48, 1
  store i64 %49, ptr %2, align 8, !tbaa !101
  %50 = icmp slt i32 %47, 0
  br i1 %50, label %.loopexit, label %51

51:                                               ; preds = %45
  %.not73 = icmp eq i32 %47, 0
  br i1 %.not73, label %52, label %.loopexit

52:                                               ; preds = %51
  %53 = load ptr, ptr %25, align 8, !tbaa !3
  %54 = getelementptr inbounds nuw i8, ptr %53, i64 320
  %55 = load ptr, ptr %54, align 8, !tbaa !114
  %.not74 = icmp eq ptr %55, null
  br i1 %.not74, label %71, label %56

56:                                               ; preds = %52
  %57 = getelementptr inbounds nuw i8, ptr %53, i64 400
  %58 = load ptr, ptr %57, align 8, !tbaa !115
  %.not75 = icmp eq ptr %58, null
  br i1 %.not75, label %71, label %59

59:                                               ; preds = %56
  %60 = load ptr, ptr %22, align 8, !tbaa !59
  %61 = getelementptr inbounds nuw i8, ptr %60, i64 32
  %62 = load ptr, ptr %61, align 8, !tbaa !110
  %63 = getelementptr inbounds nuw double, ptr %62, i64 %indvars.iv88
  %64 = load double, ptr %63, align 8, !tbaa !81
  %65 = load ptr, ptr %23, align 8, !tbaa !71
  %66 = getelementptr inbounds nuw ptr, ptr %65, i64 %indvars.iv88
  %67 = load ptr, ptr %66, align 8, !tbaa !83
  %68 = tail call double @N_VDotProdLocal(ptr noundef nonnull %8, ptr noundef %67) #12
  %69 = load double, ptr %3, align 8, !tbaa !81
  %70 = tail call double @llvm.fmuladd.f64(double %64, double %68, double %69)
  br label %83

71:                                               ; preds = %56, %52
  %72 = load ptr, ptr %22, align 8, !tbaa !59
  %73 = getelementptr inbounds nuw i8, ptr %72, i64 32
  %74 = load ptr, ptr %73, align 8, !tbaa !110
  %75 = getelementptr inbounds nuw double, ptr %74, i64 %indvars.iv88
  %76 = load double, ptr %75, align 8, !tbaa !81
  %77 = load ptr, ptr %23, align 8, !tbaa !71
  %78 = getelementptr inbounds nuw ptr, ptr %77, i64 %indvars.iv88
  %79 = load ptr, ptr %78, align 8, !tbaa !83
  %80 = tail call double @N_VDotProd(ptr noundef nonnull %8, ptr noundef %79) #12
  %81 = load double, ptr %3, align 8, !tbaa !81
  %82 = tail call double @llvm.fmuladd.f64(double %76, double %80, double %81)
  br label %83

83:                                               ; preds = %59, %71
  %storemerge = phi double [ %82, %71 ], [ %70, %59 ]
  store double %storemerge, ptr %3, align 8, !tbaa !81
  %indvars.iv.next89 = add nuw nsw i64 %indvars.iv88, 1
  %84 = load i32, ptr %17, align 8, !tbaa !72
  %85 = sext i32 %84 to i64
  %86 = icmp slt i64 %indvars.iv.next89, %85
  br i1 %86, label %26, label %._crit_edge81

._crit_edge81:                                    ; preds = %83, %12
  %87 = phi double [ 0.000000e+00, %12 ], [ %storemerge, %83 ]
  %88 = getelementptr inbounds nuw i8, ptr %8, i64 8
  %89 = load ptr, ptr %88, align 8, !tbaa !3
  %90 = getelementptr inbounds nuw i8, ptr %89, i64 320
  %91 = load ptr, ptr %90, align 8, !tbaa !114
  %.not69 = icmp eq ptr %91, null
  br i1 %.not69, label %97, label %92

92:                                               ; preds = %._crit_edge81
  %93 = getelementptr inbounds nuw i8, ptr %89, i64 400
  %94 = load ptr, ptr %93, align 8, !tbaa !115
  %.not70 = icmp eq ptr %94, null
  br i1 %.not70, label %97, label %95

95:                                               ; preds = %92
  %96 = tail call i32 @N_VDotProdMultiAllReduce(i32 noundef 1, ptr noundef nonnull %8, ptr noundef nonnull %3) #12
  %.not71 = icmp eq i32 %96, 0
  br i1 %.not71, label %._crit_edge91, label %.loopexit

._crit_edge91:                                    ; preds = %95
  %.pre = load double, ptr %3, align 8, !tbaa !81
  br label %97

97:                                               ; preds = %._crit_edge91, %92, %._crit_edge81
  %98 = phi double [ %.pre, %._crit_edge91 ], [ %87, %92 ], [ %87, %._crit_edge81 ]
  %99 = getelementptr inbounds nuw i8, ptr %0, i64 704
  %100 = load double, ptr %99, align 8, !tbaa !95
  %101 = fmul double %100, %98
  store double %101, ptr %3, align 8, !tbaa !81
  br label %.loopexit

.loopexit:                                        ; preds = %51, %45, %._crit_edge, %95, %97, %11
  %.0 = phi i32 [ 0, %97 ], [ -21, %11 ], [ -28, %95 ], [ 2, %51 ], [ -46, %45 ], [ -28, %._crit_edge ]
  ret i32 %.0
}